; ModuleID = '29/1291.c'
source_filename = "29/1291.c"
target datalayout = "e-m:e-p270:32:32-p271:32:32-p272:64:64-i64:64-f80:128-n8:16:32:64-S128"
target triple = "x86_64-pc-linux-gnu"

@.str = private unnamed_addr constant [3 x i8] c"%d\00", align 1
@.str.1 = private unnamed_addr constant [7 x i8] c"%.3lf\0A\00", align 1

; Function Attrs: noinline nounwind uwtable
define dso_local i32 @main() #0 {
  %1 = alloca i32, align 4
  %2 = alloca i32, align 4
  %3 = alloca i32, align 4
  %4 = alloca i32, align 4
  %5 = alloca i32, align 4
  %6 = alloca i32, align 4
  %7 = alloca i32, align 4
  %8 = alloca double, align 8
  %9 = alloca double, align 8
  %10 = alloca i8*, align 8
  %11 = alloca i64, align 8
  %12 = alloca i64, align 8
  store i32 0, i32* %1, align 4
  store i32 1, i32* %3, align 4
  store i32 2, i32* %4, align 4
  %13 = call i32 (i8*, ...) @__isoc99_scanf(i8* getelementptr inbounds ([3 x i8], [3 x i8]* @.str, i64 0, i64 0), i32* %6)
  %14 = load i32, i32* %6, align 4
  %15 = zext i32 %14 to i64
  %16 = call i8* @llvm.stacksave()
  store i8* %16, i8** %10, align 8
  %17 = alloca i32, i64 %15, align 16
  store i64 %15, i64* %11, align 8
  store i32 0, i32* %2, align 4
  br label %18

18:                                               ; preds = %27, %0
  %19 = load i32, i32* %2, align 4
  %20 = load i32, i32* %6, align 4
  %21 = icmp slt i32 %19, %20
  br i1 %21, label %22, label %30

22:                                               ; preds = %18
  %23 = load i32, i32* %2, align 4
  %24 = sext i32 %23 to i64
  %25 = getelementptr inbounds i32, i32* %17, i64 %24
  %26 = call i32 (i8*, ...) @__isoc99_scanf(i8* getelementptr inbounds ([3 x i8], [3 x i8]* @.str, i64 0, i64 0), i32* %25)
  br label %27

27:                                               ; preds = %22
  %28 = load i32, i32* %2, align 4
  %29 = add nsw i32 %28, 1
  store i32 %29, i32* %2, align 4
  br label %18

30:                                               ; preds = %18
  %31 = load i32, i32* %6, align 4
  %32 = zext i32 %31 to i64
  %33 = alloca double, i64 %32, align 16
  store i64 %32, i64* %12, align 8
  store i32 0, i32* %2, align 4
  br label %34

34:                                               ; preds = %42, %30
  %35 = load i32, i32* %2, align 4
  %36 = load i32, i32* %6, align 4
  %37 = icmp slt i32 %35, %36
  br i1 %37, label %38, label %45

38:                                               ; preds = %34
  %39 = load i32, i32* %2, align 4
  %40 = sext i32 %39 to i64
  %41 = getelementptr inbounds double, double* %33, i64 %40
  store double 0.000000e+00, double* %41, align 8
  br label %42

42:                                               ; preds = %38
  %43 = load i32, i32* %2, align 4
  %44 = add nsw i32 %43, 1
  store i32 %44, i32* %2, align 4
  br label %34

45:                                               ; preds = %34
  store i32 0, i32* %7, align 4
  br label %46

46:                                               ; preds = %80, %45
  %47 = load i32, i32* %7, align 4
  %48 = load i32, i32* %6, align 4
  %49 = icmp slt i32 %47, %48
  br i1 %49, label %50, label %83

50:                                               ; preds = %46
  store i32 1, i32* %3, align 4
  store i32 2, i32* %4, align 4
  store i32 0, i32* %2, align 4
  br label %51

51:                                               ; preds = %76, %50
  %52 = load i32, i32* %2, align 4
  %53 = load i32, i32* %7, align 4
  %54 = sext i32 %53 to i64
  %55 = getelementptr inbounds i32, i32* %17, i64 %54
  %56 = load i32, i32* %55, align 4
  %57 = icmp slt i32 %52, %56
  br i1 %57, label %58, label %79

58:                                               ; preds = %51
  %59 = load i32, i32* %3, align 4
  %60 = sitofp i32 %59 to double
  store double %60, double* %8, align 8
  %61 = load i32, i32* %4, align 4
  %62 = sitofp i32 %61 to double
  store double %62, double* %9, align 8
  %63 = load double, double* %9, align 8
  %64 = load double, double* %8, align 8
  %65 = fdiv double %63, %64
  %66 = load i32, i32* %7, align 4
  %67 = sext i32 %66 to i64
  %68 = getelementptr inbounds double, double* %33, i64 %67
  %69 = load double, double* %68, align 8
  %70 = fadd double %69, %65
  store double %70, double* %68, align 8
  %71 = load i32, i32* %3, align 4
  store i32 %71, i32* %5, align 4
  %72 = load i32, i32* %4, align 4
  store i32 %72, i32* %3, align 4
  %73 = load i32, i32* %5, align 4
  %74 = load i32, i32* %4, align 4
  %75 = add nsw i32 %73, %74
  store i32 %75, i32* %4, align 4
  br label %76

76:                                               ; preds = %58
  %77 = load i32, i32* %2, align 4
  %78 = add nsw i32 %77, 1
  store i32 %78, i32* %2, align 4
  br label %51

79:                                               ; preds = %51
  br label %80

80:                                               ; preds = %79
  %81 = load i32, i32* %7, align 4
  %82 = add nsw i32 %81, 1
  store i32 %82, i32* %7, align 4
  br label %46

83:                                               ; preds = %46
  store i32 0, i32* %2, align 4
  br label %84

84:                                               ; preds = %94, %83
  %85 = load i32, i32* %2, align 4
  %86 = load i32, i32* %6, align 4
  %87 = icmp slt i32 %85, %86
  br i1 %87, label %88, label %97

88:                                               ; preds = %84
  %89 = load i32, i32* %2, align 4
  %90 = sext i32 %89 to i64
  %91 = getelementptr inbounds double, double* %33, i64 %90
  %92 = load double, double* %91, align 8
  %93 = call i32 (i8*, ...) @printf(i8* getelementptr inbounds ([7 x i8], [7 x i8]* @.str.1, i64 0, i64 0), double %92)
  br label %94

94:                                               ; preds = %88
  %95 = load i32, i32* %2, align 4
  %96 = add nsw i32 %95, 1
  store i32 %96, i32* %2, align 4
  br label %84

97:                                               ; preds = %84
  store i32 0, i32* %1, align 4
  %98 = load i8*, i8** %10, align 8
  call void @llvm.stackrestore(i8* %98)
  %99 = load i32, i32* %1, align 4
  ret i32 %99
}

declare dso_local i32 @__isoc99_scanf(i8*, ...) #1

; Function Attrs: nounwind
declare i8* @llvm.stacksave() #2

declare dso_local i32 @printf(i8*, ...) #1

; Function Attrs: nounwind
declare void @llvm.stackrestore(i8*) #2


!llvm.module.flags = !{!0}
!llvm.ident = !{!1}

!0 = !{i32 1, !"wchar_size", i32 4}
!1 = !{!"clang version 10.0.0-4ubuntu1 "}
